target datalayout = "e-m:e-p270:32:32-p271:32:32-p272:64:64-i64:64-i128:128-f80:128-n8:16:32:64-S128"
target triple = "x86_64-pc-linux-gnu"

%struct._GSList = type { ptr, ptr }
%struct.conversation_filter_s = type { ptr, ptr, ptr, ptr, ptr }
%struct._GList = type { ptr, ptr, ptr }

@packet_conv_filter_list = global ptr null, align 8
@conversation_proto_names = internal global ptr null, align 8

; Function Attrs: nounwind null_pointer_is_valid sspstrong uwtable
define internal ptr @find_conversation_filter(ptr noundef %0, ptr noundef %1) #7 {
  %3 = alloca ptr, align 8
  %4 = alloca ptr, align 8
  %5 = alloca ptr, align 8
  %6 = alloca ptr, align 8
  %7 = alloca ptr, align 8
  %8 = alloca i32, align 4
  store ptr %0, ptr %4, align 8
  store ptr %1, ptr %5, align 8
  call void @llvm.lifetime.start.p0(i64 8, ptr %6) #8
  %9 = load ptr, ptr %4, align 8
  store ptr %9, ptr %6, align 8
  call void @llvm.lifetime.start.p0(i64 8, ptr %7) #8
  br label %10

10:                                               ; preds = %33, %2
  %11 = load ptr, ptr %6, align 8
  %12 = icmp ne ptr %11, null
  br i1 %12, label %13, label %35

13:                                               ; preds = %10
  %14 = load ptr, ptr %6, align 8
  %15 = getelementptr inbounds nuw %struct._GList, ptr %14, i32 0, i32 0
  %16 = load ptr, ptr %15, align 8
  store ptr %16, ptr %7, align 8
  %17 = load ptr, ptr %7, align 8
  %18 = getelementptr inbounds nuw %struct.conversation_filter_s, ptr %17, i32 0, i32 0
  %19 = load ptr, ptr %18, align 8
  %20 = load ptr, ptr %5, align 8
  %21 = call i32 @strcmp(ptr noundef %19, ptr noundef %20) #9
  %22 = icmp ne i32 %21, 0
  br i1 %22, label %25, label %23

23:                                               ; preds = %13
  %24 = load ptr, ptr %7, align 8
  store ptr %24, ptr %3, align 8
  store i32 1, ptr %8, align 4
  br label %36

25:                                               ; preds = %13
  %26 = load ptr, ptr %6, align 8
  %27 = icmp ne ptr %26, null
  br i1 %27, label %28, label %32

28:                                               ; preds = %25
  %29 = load ptr, ptr %6, align 8
  %30 = getelementptr inbounds nuw %struct._GList, ptr %29, i32 0, i32 1
  %31 = load ptr, ptr %30, align 8
  br label %33

32:                                               ; preds = %25
  br label %33

33:                                               ; preds = %32, %28
  %34 = phi ptr [ %31, %28 ], [ null, %32 ]
  store ptr %34, ptr %6, align 8
  br label %10, !llvm.loop !9

35:                                               ; preds = %10
  store ptr null, ptr %3, align 8
  store i32 1, ptr %8, align 4
  br label %36

36:                                               ; preds = %35, %23
  call void @llvm.lifetime.end.p0(i64 8, ptr %7) #8
  call void @llvm.lifetime.end.p0(i64 8, ptr %6) #8
  %37 = load ptr, ptr %3, align 8
  ret ptr %37
}

; Function Attrs: null_pointer_is_valid sspstrong uwtable
define internal ptr @conversation_filter_from_pinfo(ptr noundef %0, ptr noundef %1) #0 {
  %3 = alloca ptr, align 8
  %4 = alloca ptr, align 8
  %5 = alloca ptr, align 8
  %6 = alloca ptr, align 8
  %7 = alloca ptr, align 8
  %8 = alloca ptr, align 8
  %9 = alloca i32, align 4
  store ptr %0, ptr %4, align 8
  store ptr %1, ptr %5, align 8
  call void @llvm.lifetime.start.p0(i64 8, ptr %6) #8
  call void @llvm.lifetime.start.p0(i64 8, ptr %7) #8
  call void @llvm.lifetime.start.p0(i64 8, ptr %8) #8
  %10 = load ptr, ptr @conversation_proto_names, align 8
  store ptr %10, ptr %8, align 8
  br label %11

11:                                               ; preds = %54, %2
  %12 = load ptr, ptr %8, align 8
  %13 = icmp ne ptr %12, null
  br i1 %13, label %15, label %14

14:                                               ; preds = %11
  store i32 2, ptr %9, align 4
  br label %56

15:                                               ; preds = %11
  %16 = load ptr, ptr %4, align 8
  %17 = load ptr, ptr %8, align 8
  %18 = getelementptr inbounds nuw %struct._GSList, ptr %17, i32 0, i32 0
  %19 = load ptr, ptr %18, align 8
  %20 = call ptr @find_conversation_filter(ptr noundef %16, ptr noundef %19)
  store ptr %20, ptr %6, align 8
  %21 = load ptr, ptr %6, align 8
  %22 = icmp ne ptr %21, null
  br i1 %22, label %23, label %45

23:                                               ; preds = %15
  %24 = load ptr, ptr %6, align 8
  %25 = getelementptr inbounds nuw %struct.conversation_filter_s, ptr %24, i32 0, i32 2
  %26 = load ptr, ptr %25, align 8
  %27 = load ptr, ptr %5, align 8
  %28 = load ptr, ptr %6, align 8
  %29 = getelementptr inbounds nuw %struct.conversation_filter_s, ptr %28, i32 0, i32 4
  %30 = load ptr, ptr %29, align 8
  %31 = call zeroext i1 %26(ptr noundef %27, ptr noundef %30)
  br i1 %31, label %32, label %45

32:                                               ; preds = %23
  %33 = load ptr, ptr %6, align 8
  %34 = getelementptr inbounds nuw %struct.conversation_filter_s, ptr %33, i32 0, i32 3
  %35 = load ptr, ptr %34, align 8
  %36 = load ptr, ptr %5, align 8
  %37 = load ptr, ptr %6, align 8
  %38 = getelementptr inbounds nuw %struct.conversation_filter_s, ptr %37, i32 0, i32 4
  %39 = load ptr, ptr %38, align 8
  %40 = call ptr %35(ptr noundef %36, ptr noundef %39)
  store ptr %40, ptr %7, align 8
  %41 = icmp ne ptr %40, null
  br i1 %41, label %42, label %44

42:                                               ; preds = %32
  %43 = load ptr, ptr %7, align 8
  store ptr %43, ptr %3, align 8
  store i32 1, ptr %9, align 4
  br label %56

44:                                               ; preds = %32
  br label %45

45:                                               ; preds = %44, %23, %15
  br label %46

46:                                               ; preds = %45
  %47 = load ptr, ptr %8, align 8
  %48 = icmp ne ptr %47, null
  br i1 %48, label %49, label %53

49:                                               ; preds = %46
  %50 = load ptr, ptr %8, align 8
  %51 = getelementptr inbounds nuw %struct._GSList, ptr %50, i32 0, i32 1
  %52 = load ptr, ptr %51, align 8
  br label %54

53:                                               ; preds = %46
  br label %54

54:                                               ; preds = %53, %49
  %55 = phi ptr [ %52, %49 ], [ null, %53 ]
  store ptr %55, ptr %8, align 8
  br label %11, !llvm.loop !8

56:                                               ; preds = %42, %14
  call void @llvm.lifetime.end.p0(i64 8, ptr %8) #8
  %57 = load i32, ptr %9, align 4
  switch i32 %57, label %59 [
    i32 2, label %58
  ]

58:                                               ; preds = %56
  store ptr null, ptr %3, align 8
  store i32 1, ptr %9, align 4
  br label %59

59:                                               ; preds = %58, %56
  call void @llvm.lifetime.end.p0(i64 8, ptr %7) #8
  call void @llvm.lifetime.end.p0(i64 8, ptr %6) #8
  %60 = load ptr, ptr %3, align 8
  ret ptr %60
}

; Function Attrs: null_pointer_is_valid sspstrong uwtable
define ptr @conversation_filter_from_packet(ptr noundef %0) #0 {
  %2 = alloca ptr, align 8
  store ptr %0, ptr %2, align 8
  %3 = load ptr, ptr @packet_conv_filter_list, align 8
  %4 = load ptr, ptr %2, align 8
  %5 = call ptr @conversation_filter_from_pinfo(ptr noundef %3, ptr noundef %4)
  ret ptr %5
}